target datalayout = "e-m:e-p270:32:32-p271:32:32-p272:64:64-i64:64-i128:128-f80:128-n8:16:32:64-S128"
target triple = "x86_64-pc-linux-gnu"

%"class.gmx::SelectionTreeElement" = type { i32, %struct.gmx_ana_selvalue_t, ptr, i32, %union.anon.0, ptr, ptr, %"class.std::shared_ptr", %"class.std::shared_ptr", %"class.std::__cxx11::basic_string", %"struct.gmx::SelectionLocation" }
%struct.gmx_ana_selvalue_t = type { i32, i32, %union.anon, i32 }
%union.anon = type { ptr }
%union.anon.0 = type { %struct.anon }
%struct.anon = type { ptr, ptr, ptr, ptr }
%"class.std::shared_ptr" = type { %"class.std::__shared_ptr" }
%"class.std::__shared_ptr" = type { ptr, %"class.std::__shared_count" }
%"class.std::__shared_count" = type { ptr }
%"class.std::__cxx11::basic_string" = type { %"struct.std::__cxx11::basic_string<char>::_Alloc_hider", i64, %union.anon.2 }
%"struct.std::__cxx11::basic_string<char>::_Alloc_hider" = type { ptr }
%union.anon.2 = type { i64, [8 x i8] }
%"struct.gmx::SelectionLocation" = type { i32, i32 }
%struct.anon.1 = type { ptr, i32 }

@.str.20 = private unnamed_addr constant [127 x i8] c"generated/home/dtcxzyw/WorkSpace/Projects/compilers/llvm-opt-benchmark/bench/gromacs/gromacs/src/gromacs/selection/selelem.cpp\00", align 1
@.str.23 = private unnamed_addr constant [12 x i8] c"u.gref.name\00", align 1

; Function Attrs: mustprogress uwtable
define internal void @_ZL14gmx_sfree_implIcEvPKcS1_iPT_(ptr noundef %0, ptr noundef %1, i32 noundef %2, ptr noundef %3) #1 {
  %5 = alloca ptr, align 8
  %6 = alloca ptr, align 8
  %7 = alloca i32, align 4
  %8 = alloca ptr, align 8
  store ptr %0, ptr %5, align 8
  store ptr %1, ptr %6, align 8
  store i32 %2, ptr %7, align 4
  store ptr %3, ptr %8, align 8
  %9 = load ptr, ptr %5, align 8
  %10 = load ptr, ptr %6, align 8
  %11 = load i32, ptr %7, align 4
  %12 = load ptr, ptr %8, align 8
  call void @_Z9save_freePKcS0_iPv(ptr noundef %9, ptr noundef %10, i32 noundef %11, ptr noundef %12)
  ret void
}

; Function Attrs: mustprogress uwtable
define void @_ZN3gmx20SelectionTreeElement18freeExpressionDataEv(ptr noundef nonnull align 8 dereferenceable(168) %0) #1 align 2 {
  %2 = alloca ptr, align 8
  store ptr %0, ptr %2, align 8
  %3 = load ptr, ptr %2, align 8
  %4 = getelementptr inbounds %"class.gmx::SelectionTreeElement", ptr %3, i32 0, i32 0
  %5 = load i32, ptr %4, align 8
  %6 = icmp eq i32 %5, 1
  br i1 %6, label %11, label %7

7:                                                ; preds = %1
  %8 = getelementptr inbounds %"class.gmx::SelectionTreeElement", ptr %3, i32 0, i32 0
  %9 = load i32, ptr %8, align 8
  %10 = icmp eq i32 %9, 8
  br i1 %10, label %11, label %41

11:                                               ; preds = %7, %1
  %12 = getelementptr inbounds %"class.gmx::SelectionTreeElement", ptr %3, i32 0, i32 4
  %13 = getelementptr inbounds %struct.anon, ptr %12, i32 0, i32 0
  %14 = load ptr, ptr %13, align 8
  %15 = getelementptr inbounds %"class.gmx::SelectionTreeElement", ptr %3, i32 0, i32 4
  %16 = getelementptr inbounds %struct.anon, ptr %15, i32 0, i32 1
  %17 = load ptr, ptr %16, align 8
  call void @_Z24_gmx_selelem_free_methodP19gmx_ana_selmethod_tPv(ptr noundef %14, ptr noundef %17)
  %18 = getelementptr inbounds %"class.gmx::SelectionTreeElement", ptr %3, i32 0, i32 4
  %19 = getelementptr inbounds %struct.anon, ptr %18, i32 0, i32 1
  store ptr null, ptr %19, align 8
  %20 = getelementptr inbounds %"class.gmx::SelectionTreeElement", ptr %3, i32 0, i32 4
  %21 = getelementptr inbounds %struct.anon, ptr %20, i32 0, i32 0
  store ptr null, ptr %21, align 8
  %22 = getelementptr inbounds %"class.gmx::SelectionTreeElement", ptr %3, i32 0, i32 4
  %23 = getelementptr inbounds %struct.anon, ptr %22, i32 0, i32 2
  %24 = load ptr, ptr %23, align 8
  %25 = icmp eq ptr %24, null
  br i1 %25, label %27, label %26

26:                                               ; preds = %11
  call void @_ZN13gmx_ana_pos_tD1Ev(ptr noundef nonnull align 8 dereferenceable(148) %24) #11
  call void @_ZdlPv(ptr noundef %24) #13
  br label %27

27:                                               ; preds = %26, %11
  %28 = getelementptr inbounds %"class.gmx::SelectionTreeElement", ptr %3, i32 0, i32 4
  %29 = getelementptr inbounds %struct.anon, ptr %28, i32 0, i32 2
  store ptr null, ptr %29, align 8
  %30 = getelementptr inbounds %"class.gmx::SelectionTreeElement", ptr %3, i32 0, i32 4
  %31 = getelementptr inbounds %struct.anon, ptr %30, i32 0, i32 3
  %32 = load ptr, ptr %31, align 8
  %33 = icmp ne ptr %32, null
  br i1 %33, label %34, label %40

34:                                               ; preds = %27
  %35 = getelementptr inbounds %"class.gmx::SelectionTreeElement", ptr %3, i32 0, i32 4
  %36 = getelementptr inbounds %struct.anon, ptr %35, i32 0, i32 3
  %37 = load ptr, ptr %36, align 8
  call void @_Z20gmx_ana_poscalc_freeP17gmx_ana_poscalc_t(ptr noundef %37)
  %38 = getelementptr inbounds %"class.gmx::SelectionTreeElement", ptr %3, i32 0, i32 4
  %39 = getelementptr inbounds %struct.anon, ptr %38, i32 0, i32 3
  store ptr null, ptr %39, align 8
  br label %40

40:                                               ; preds = %34, %27
  br label %41

41:                                               ; preds = %40, %7
  %42 = getelementptr inbounds %"class.gmx::SelectionTreeElement", ptr %3, i32 0, i32 0
  %43 = load i32, ptr %42, align 8
  %44 = icmp eq i32 %43, 5
  br i1 %44, label %58, label %45

45:                                               ; preds = %41
  %46 = getelementptr inbounds %"class.gmx::SelectionTreeElement", ptr %3, i32 0, i32 0
  %47 = load i32, ptr %46, align 8
  %48 = icmp eq i32 %47, 4
  br i1 %48, label %58, label %49

49:                                               ; preds = %45
  %50 = getelementptr inbounds %"class.gmx::SelectionTreeElement", ptr %3, i32 0, i32 0
  %51 = load i32, ptr %50, align 8
  %52 = icmp eq i32 %51, 0
  br i1 %52, label %53, label %60

53:                                               ; preds = %49
  %54 = getelementptr inbounds %"class.gmx::SelectionTreeElement", ptr %3, i32 0, i32 1
  %55 = getelementptr inbounds %struct.gmx_ana_selvalue_t, ptr %54, i32 0, i32 0
  %56 = load i32, ptr %55, align 8
  %57 = icmp eq i32 %56, 5
  br i1 %57, label %58, label %60

58:                                               ; preds = %53, %45, %41
  %59 = getelementptr inbounds %"class.gmx::SelectionTreeElement", ptr %3, i32 0, i32 4
  call void @_Z20gmx_ana_index_deinitP15gmx_ana_index_t(ptr noundef %59)
  br label %60

60:                                               ; preds = %58, %53, %49
  %61 = getelementptr inbounds %"class.gmx::SelectionTreeElement", ptr %3, i32 0, i32 0
  %62 = load i32, ptr %61, align 8
  %63 = icmp eq i32 %62, 7
  br i1 %63, label %64, label %68

64:                                               ; preds = %60
  %65 = getelementptr inbounds %"class.gmx::SelectionTreeElement", ptr %3, i32 0, i32 4
  %66 = getelementptr inbounds %struct.anon.1, ptr %65, i32 0, i32 0
  %67 = load ptr, ptr %66, align 8
  call void @_ZL14gmx_sfree_implIcEvPKcS1_iPT_(ptr noundef @.str.23, ptr noundef @.str.20, i32 noundef 235, ptr noundef %67)
  br label %68

68:                                               ; preds = %64, %60
  ret void
}