; Function Attrs: mustprogress uwtable
define void @_ZN3gmx20SelectionTreeElement18freeExpressionDataEv(ptr noundef nonnull align 8 dereferenceable(168) %0) local_unnamed_addr #1 align 2 {
  %2 = load i32, ptr %0, align 8
  switch i32 %2, label %16 [
    i32 1, label %3
    i32 8, label %3
  ]

3:                                                ; preds = %1, %1
  %4 = getelementptr inbounds i8, ptr %0, i64 48
  %5 = load ptr, ptr %4, align 8
  %6 = getelementptr inbounds i8, ptr %0, i64 56
  %7 = load ptr, ptr %6, align 8
  tail call void @_Z24_gmx_selelem_free_methodP19gmx_ana_selmethod_tPv(ptr noundef %5, ptr noundef %7)
  %8 = getelementptr inbounds i8, ptr %0, i64 64
  tail call void @llvm.memset.p0.i64(ptr noundef nonnull align 8 dereferenceable(16) %4, i8 0, i64 16, i1 false)
  %9 = load ptr, ptr %8, align 8
  %10 = icmp eq ptr %9, null
  br i1 %10, label %12, label %11

11:                                               ; preds = %3
  tail call void @_ZN13gmx_ana_pos_tD1Ev(ptr noundef nonnull align 8 dereferenceable(148) %9) #17
  tail call void @_ZdlPv(ptr noundef nonnull %9) #20
  br label %12

12:                                               ; preds = %11, %3
  store ptr null, ptr %8, align 8
  %13 = getelementptr inbounds i8, ptr %0, i64 72
  %14 = load ptr, ptr %13, align 8
  %.not = icmp eq ptr %14, null
  br i1 %.not, label %thread-pre-split, label %15

15:                                               ; preds = %12
  tail call void @_Z20gmx_ana_poscalc_freeP17gmx_ana_poscalc_t(ptr noundef nonnull %14)
  store ptr null, ptr %13, align 8
  br label %thread-pre-split

thread-pre-split:                                 ; preds = %15, %12
  %.pr = load i32, ptr %0, align 8
  br label %16

16:                                               ; preds = %thread-pre-split, %1
  %17 = phi i32 [ %.pr, %thread-pre-split ], [ %2, %1 ]
  switch i32 %17, label %24 [
    i32 5, label %22
    i32 4, label %22
    i32 0, label %18
  ]

18:                                               ; preds = %16
  %19 = getelementptr inbounds i8, ptr %0, i64 8
  %20 = load i32, ptr %19, align 8
  %21 = icmp eq i32 %20, 5
  br i1 %21, label %22, label %.thread

22:                                               ; preds = %16, %16, %18
  %23 = getelementptr inbounds i8, ptr %0, i64 48
  tail call void @_Z20gmx_ana_index_deinitP15gmx_ana_index_t(ptr noundef nonnull %23)
  %.pre = load i32, ptr %0, align 8
  br label %24

24:                                               ; preds = %16, %22
  %25 = phi i32 [ %17, %16 ], [ %.pre, %22 ]
  %26 = icmp eq i32 %25, 7
  br i1 %26, label %27, label %.thread

27:                                               ; preds = %24
  %28 = getelementptr inbounds i8, ptr %0, i64 48
  %29 = load ptr, ptr %28, align 8
  tail call void @_Z9save_freePKcS0_iPv(ptr noundef nonnull @.str.23, ptr noundef nonnull @.str.20, i32 noundef 235, ptr noundef %29)
  br label %.thread

.thread:                                          ; preds = %18, %27, %24
  ret void
}